target datalayout = "e-m:e-p270:32:32-p271:32:32-p272:64:64-i64:64-i128:128-f80:128-n8:16:32:64-S128"
target triple = "x86_64-pc-linux-gnu"

%struct.numeric = type { i32, i32, i32, i32, i32, ptr, ptr }

; Function Attrs: nounwind uwtable
define internal void @ecpg_sqlda_align_add_size(i64 noundef %0, i32 noundef %1, i32 noundef %2, ptr noundef %3, ptr noundef %4) #0 {
  %6 = alloca i64, align 8
  %7 = alloca i32, align 4
  %8 = alloca i32, align 4
  %9 = alloca ptr, align 8
  %10 = alloca ptr, align 8
  store i64 %0, ptr %6, align 8
  store i32 %1, ptr %7, align 4
  store i32 %2, ptr %8, align 4
  store ptr %3, ptr %9, align 8
  store ptr %4, ptr %10, align 8
  %11 = load i64, ptr %6, align 8
  %12 = load i32, ptr %7, align 4
  %13 = sext i32 %12 to i64
  %14 = srem i64 %11, %13
  %15 = icmp ne i64 %14, 0
  br i1 %15, label %16, label %26

16:                                               ; preds = %5
  %17 = load i32, ptr %7, align 4
  %18 = sext i32 %17 to i64
  %19 = load i64, ptr %6, align 8
  %20 = load i32, ptr %7, align 4
  %21 = sext i32 %20 to i64
  %22 = srem i64 %19, %21
  %23 = sub i64 %18, %22
  %24 = load i64, ptr %6, align 8
  %25 = add i64 %24, %23
  store i64 %25, ptr %6, align 8
  br label %26

26:                                               ; preds = %16, %5
  %27 = load ptr, ptr %9, align 8
  %28 = icmp ne ptr %27, null
  br i1 %28, label %29, label %32

29:                                               ; preds = %26
  %30 = load i64, ptr %6, align 8
  %31 = load ptr, ptr %9, align 8
  store i64 %30, ptr %31, align 8
  br label %32

32:                                               ; preds = %29, %26
  %33 = load i32, ptr %8, align 4
  %34 = sext i32 %33 to i64
  %35 = load i64, ptr %6, align 8
  %36 = add i64 %35, %34
  store i64 %36, ptr %6, align 8
  %37 = load ptr, ptr %10, align 8
  %38 = icmp ne ptr %37, null
  br i1 %38, label %39, label %42

39:                                               ; preds = %32
  %40 = load i64, ptr %6, align 8
  %41 = load ptr, ptr %10, align 8
  store i64 %40, ptr %41, align 8
  br label %42

42:                                               ; preds = %39, %32
  ret void
}

; Function Attrs: nounwind uwtable
define internal i64 @sqlda_common_total_size(ptr noundef %0, i32 noundef %1, i32 noundef %2, i64 noundef %3) #0 {
  %5 = alloca ptr, align 8
  %6 = alloca i32, align 4
  %7 = alloca i32, align 4
  %8 = alloca i64, align 8
  %9 = alloca i32, align 4
  %10 = alloca i32, align 4
  %11 = alloca i64, align 8
  %12 = alloca i32, align 4
  %13 = alloca ptr, align 8
  %14 = alloca ptr, align 8
  %15 = alloca i32, align 4
  %16 = alloca i64, align 8
  store ptr %0, ptr %5, align 8
  store i32 %1, ptr %6, align 4
  store i32 %2, ptr %7, align 4
  store i64 %3, ptr %8, align 8
  call void @llvm.lifetime.start.p0(i64 4, ptr %9) #7
  %17 = load ptr, ptr %5, align 8
  %18 = call i32 @PQnfields(ptr noundef %17)
  store i32 %18, ptr %9, align 4
  call void @llvm.lifetime.start.p0(i64 4, ptr %10) #7
  call void @llvm.lifetime.start.p0(i64 8, ptr %11) #7
  store i32 0, ptr %10, align 4
  br label %19

19:                                               ; preds = %110, %4
  %20 = load i32, ptr %10, align 4
  %21 = load i32, ptr %9, align 4
  %22 = icmp slt i32 %20, %21
  br i1 %22, label %23, label %113

23:                                               ; preds = %19
  call void @llvm.lifetime.start.p0(i64 4, ptr %12) #7
  %24 = load ptr, ptr %5, align 8
  %25 = load i32, ptr %10, align 4
  %26 = call i32 @PQftype(ptr noundef %24, i32 noundef %25)
  %27 = load i32, ptr %7, align 4
  %28 = call i32 @sqlda_dynamic_type(i32 noundef %26, i32 noundef %27)
  store i32 %28, ptr %12, align 4
  %29 = load i32, ptr %12, align 4
  switch i32 %29, label %98 [
    i32 3, label %30
    i32 4, label %30
    i32 5, label %32
    i32 6, label %32
    i32 7, label %34
    i32 8, label %34
    i32 9, label %36
    i32 10, label %36
    i32 11, label %38
    i32 12, label %40
    i32 13, label %42
    i32 17, label %44
    i32 16, label %46
    i32 18, label %91
    i32 19, label %93
    i32 20, label %95
    i32 1, label %97
    i32 2, label %97
    i32 30, label %97
  ]

30:                                               ; preds = %23, %23
  %31 = load i64, ptr %8, align 8
  call void @ecpg_sqlda_align_add_size(i64 noundef %31, i32 noundef 2, i32 noundef 2, ptr noundef %8, ptr noundef %11)
  br label %108

32:                                               ; preds = %23, %23
  %33 = load i64, ptr %8, align 8
  call void @ecpg_sqlda_align_add_size(i64 noundef %33, i32 noundef 4, i32 noundef 4, ptr noundef %8, ptr noundef %11)
  br label %108

34:                                               ; preds = %23, %23
  %35 = load i64, ptr %8, align 8
  call void @ecpg_sqlda_align_add_size(i64 noundef %35, i32 noundef 8, i32 noundef 8, ptr noundef %8, ptr noundef %11)
  br label %108

36:                                               ; preds = %23, %23
  %37 = load i64, ptr %8, align 8
  call void @ecpg_sqlda_align_add_size(i64 noundef %37, i32 noundef 8, i32 noundef 8, ptr noundef %8, ptr noundef %11)
  br label %108

38:                                               ; preds = %23
  %39 = load i64, ptr %8, align 8
  call void @ecpg_sqlda_align_add_size(i64 noundef %39, i32 noundef 1, i32 noundef 1, ptr noundef %8, ptr noundef %11)
  br label %108

40:                                               ; preds = %23
  %41 = load i64, ptr %8, align 8
  call void @ecpg_sqlda_align_add_size(i64 noundef %41, i32 noundef 4, i32 noundef 4, ptr noundef %8, ptr noundef %11)
  br label %108

42:                                               ; preds = %23
  %43 = load i64, ptr %8, align 8
  call void @ecpg_sqlda_align_add_size(i64 noundef %43, i32 noundef 8, i32 noundef 8, ptr noundef %8, ptr noundef %11)
  br label %108

44:                                               ; preds = %23
  %45 = load i64, ptr %8, align 8
  call void @ecpg_sqlda_align_add_size(i64 noundef %45, i32 noundef 4, i32 noundef 52, ptr noundef %8, ptr noundef %11)
  br label %108

46:                                               ; preds = %23
  %47 = load i64, ptr %8, align 8
  call void @ecpg_sqlda_align_add_size(i64 noundef %47, i32 noundef 8, i32 noundef 40, ptr noundef %8, ptr noundef %11)
  %48 = load ptr, ptr %5, align 8
  %49 = load i32, ptr %6, align 4
  %50 = load i32, ptr %10, align 4
  %51 = call i32 @PQgetisnull(ptr noundef %48, i32 noundef %49, i32 noundef %50)
  %52 = icmp ne i32 %51, 0
  br i1 %52, label %90, label %53

53:                                               ; preds = %46
  call void @llvm.lifetime.start.p0(i64 8, ptr %13) #7
  %54 = load ptr, ptr %5, align 8
  %55 = load i32, ptr %6, align 4
  %56 = load i32, ptr %10, align 4
  %57 = call ptr @PQgetvalue(ptr noundef %54, i32 noundef %55, i32 noundef %56)
  store ptr %57, ptr %13, align 8
  call void @llvm.lifetime.start.p0(i64 8, ptr %14) #7
  %58 = load ptr, ptr %13, align 8
  %59 = call ptr @PGTYPESnumeric_from_asc(ptr noundef %58, ptr noundef null)
  store ptr %59, ptr %14, align 8
  %60 = load ptr, ptr %14, align 8
  %61 = icmp ne ptr %60, null
  br i1 %61, label %63, label %62

62:                                               ; preds = %53
  store i32 5, ptr %15, align 4
  br label %87

63:                                               ; preds = %53
  %64 = load ptr, ptr %14, align 8
  %65 = getelementptr inbounds nuw %struct.numeric, ptr %64, i32 0, i32 5
  %66 = load ptr, ptr %65, align 8
  %67 = icmp ne ptr %66, null
  br i1 %67, label %68, label %85

68:                                               ; preds = %63
  %69 = load i64, ptr %11, align 8
  %70 = load ptr, ptr %14, align 8
  %71 = getelementptr inbounds nuw %struct.numeric, ptr %70, i32 0, i32 6
  %72 = load ptr, ptr %71, align 8
  %73 = load ptr, ptr %14, align 8
  %74 = getelementptr inbounds nuw %struct.numeric, ptr %73, i32 0, i32 5
  %75 = load ptr, ptr %74, align 8
  %76 = ptrtoint ptr %72 to i64
  %77 = ptrtoint ptr %75 to i64
  %78 = sub i64 %76, %77
  %79 = load ptr, ptr %14, align 8
  %80 = getelementptr inbounds nuw %struct.numeric, ptr %79, i32 0, i32 0
  %81 = load i32, ptr %80, align 8
  %82 = sext i32 %81 to i64
  %83 = add i64 %78, %82
  %84 = trunc i64 %83 to i32
  call void @ecpg_sqlda_align_add_size(i64 noundef %69, i32 noundef 4, i32 noundef %84, ptr noundef %8, ptr noundef %11)
  br label %85

85:                                               ; preds = %68, %63
  %86 = load ptr, ptr %14, align 8
  call void @PGTYPESnumeric_free(ptr noundef %86)
  store i32 0, ptr %15, align 4
  br label %87

87:                                               ; preds = %85, %62
  call void @llvm.lifetime.end.p0(i64 8, ptr %14) #7
  call void @llvm.lifetime.end.p0(i64 8, ptr %13) #7
  %88 = load i32, ptr %15, align 4
  switch i32 %88, label %115 [
    i32 0, label %89
    i32 5, label %108
  ]

89:                                               ; preds = %87
  br label %90

90:                                               ; preds = %89, %46
  br label %108

91:                                               ; preds = %23
  %92 = load i64, ptr %8, align 8
  call void @ecpg_sqlda_align_add_size(i64 noundef %92, i32 noundef 8, i32 noundef 8, ptr noundef %8, ptr noundef %11)
  br label %108

93:                                               ; preds = %23
  %94 = load i64, ptr %8, align 8
  call void @ecpg_sqlda_align_add_size(i64 noundef %94, i32 noundef 8, i32 noundef 8, ptr noundef %8, ptr noundef %11)
  br label %108

95:                                               ; preds = %23
  %96 = load i64, ptr %8, align 8
  call void @ecpg_sqlda_align_add_size(i64 noundef %96, i32 noundef 8, i32 noundef 16, ptr noundef %8, ptr noundef %11)
  br label %108

97:                                               ; preds = %23, %23, %23
  br label %98

98:                                               ; preds = %23, %97
  call void @llvm.lifetime.start.p0(i64 8, ptr %16) #7
  %99 = load ptr, ptr %5, align 8
  %100 = load i32, ptr %6, align 4
  %101 = load i32, ptr %10, align 4
  %102 = call ptr @PQgetvalue(ptr noundef %99, i32 noundef %100, i32 noundef %101)
  %103 = call i64 @strlen(ptr noundef %102) #8
  %104 = add i64 %103, 1
  store i64 %104, ptr %16, align 8
  %105 = load i64, ptr %8, align 8
  %106 = load i64, ptr %16, align 8
  %107 = trunc i64 %106 to i32
  call void @ecpg_sqlda_align_add_size(i64 noundef %105, i32 noundef 4, i32 noundef %107, ptr noundef %8, ptr noundef %11)
  store i32 5, ptr %15, align 4
  call void @llvm.lifetime.end.p0(i64 8, ptr %16) #7
  br label %108

108:                                              ; preds = %98, %95, %93, %91, %90, %87, %44, %42, %40, %38, %36, %34, %32, %30
  %109 = load i64, ptr %11, align 8
  store i64 %109, ptr %8, align 8
  call void @llvm.lifetime.end.p0(i64 4, ptr %12) #7
  br label %110

110:                                              ; preds = %108
  %111 = load i32, ptr %10, align 4
  %112 = add i32 %111, 1
  store i32 %112, ptr %10, align 4
  br label %19, !llvm.loop !11

113:                                              ; preds = %19
  %114 = load i64, ptr %8, align 8
  store i32 1, ptr %15, align 4
  call void @llvm.lifetime.end.p0(i64 8, ptr %11) #7
  call void @llvm.lifetime.end.p0(i64 4, ptr %10) #7
  call void @llvm.lifetime.end.p0(i64 4, ptr %9) #7
  ret i64 %114

115:                                              ; preds = %87
  unreachable
}