; Function Attrs: nounwind uwtable
define internal fastcc i64 @sqlda_common_total_size(ptr noundef %0, i32 noundef range(i32 0, -2147483648) %1, i32 noundef %2, i64 noundef %3) unnamed_addr #0 {
  %5 = tail call i32 @PQnfields(ptr noundef %0) #6
  %6 = icmp sgt i32 %5, 0
  br i1 %6, label %.lr.ph, label %._crit_edge

.lr.ph:                                           ; preds = %4, %97
  %.072 = phi i32 [ %98, %97 ], [ 0, %4 ]
  %.07071 = phi i64 [ %.069, %97 ], [ %3, %4 ]
  %7 = tail call i32 @PQftype(ptr noundef %0, i32 noundef %.072) #6
  %8 = tail call i32 @sqlda_dynamic_type(i32 noundef %7, i32 noundef %2) #6
  switch i32 %8, label %88 [
    i32 3, label %9
    i32 4, label %9
    i32 5, label %14
    i32 6, label %14
    i32 7, label %19
    i32 8, label %19
    i32 9, label %24
    i32 10, label %24
    i32 11, label %29
    i32 12, label %31
    i32 13, label %36
    i32 17, label %41
    i32 16, label %46
    i32 18, label %73
    i32 19, label %78
    i32 20, label %83
  ]

9:                                                ; preds = %.lr.ph, %.lr.ph
  %10 = srem i64 %.07071, 2
  %.not.i = icmp eq i64 %10, 0
  %11 = sub nsw i64 2, %10
  %12 = select i1 %.not.i, i64 0, i64 %11
  %.0.i = add i64 %.07071, 2
  %13 = add i64 %.0.i, %12
  br label %97

14:                                               ; preds = %.lr.ph, %.lr.ph
  %15 = srem i64 %.07071, 4
  %.not.i28 = icmp eq i64 %15, 0
  %16 = sub nsw i64 4, %15
  %17 = select i1 %.not.i28, i64 0, i64 %16
  %.0.i29 = add i64 %.07071, 4
  %18 = add i64 %.0.i29, %17
  br label %97

19:                                               ; preds = %.lr.ph, %.lr.ph
  %20 = srem i64 %.07071, 8
  %.not.i30 = icmp eq i64 %20, 0
  %21 = sub nsw i64 8, %20
  %22 = select i1 %.not.i30, i64 0, i64 %21
  %.0.i31 = add i64 %.07071, 8
  %23 = add i64 %.0.i31, %22
  br label %97

24:                                               ; preds = %.lr.ph, %.lr.ph
  %25 = srem i64 %.07071, 8
  %.not.i32 = icmp eq i64 %25, 0
  %26 = sub nsw i64 8, %25
  %27 = select i1 %.not.i32, i64 0, i64 %26
  %.0.i33 = add i64 %.07071, 8
  %28 = add i64 %.0.i33, %27
  br label %97

29:                                               ; preds = %.lr.ph
  %30 = add i64 %.07071, 1
  br label %97

31:                                               ; preds = %.lr.ph
  %32 = srem i64 %.07071, 4
  %.not.i36 = icmp eq i64 %32, 0
  %33 = sub nsw i64 4, %32
  %34 = select i1 %.not.i36, i64 0, i64 %33
  %.0.i37 = add i64 %.07071, 4
  %35 = add i64 %.0.i37, %34
  br label %97

36:                                               ; preds = %.lr.ph
  %37 = srem i64 %.07071, 8
  %.not.i38 = icmp eq i64 %37, 0
  %38 = sub nsw i64 8, %37
  %39 = select i1 %.not.i38, i64 0, i64 %38
  %.0.i39 = add i64 %.07071, 8
  %40 = add i64 %.0.i39, %39
  br label %97

41:                                               ; preds = %.lr.ph
  %42 = srem i64 %.07071, 4
  %.not.i40 = icmp eq i64 %42, 0
  %43 = sub nsw i64 4, %42
  %44 = select i1 %.not.i40, i64 0, i64 %43
  %.0.i41 = add i64 %.07071, 52
  %45 = add i64 %.0.i41, %44
  br label %97

46:                                               ; preds = %.lr.ph
  %47 = srem i64 %.07071, 8
  %.not.i42 = icmp eq i64 %47, 0
  %48 = sub nsw i64 8, %47
  %49 = select i1 %.not.i42, i64 0, i64 %48
  %.0.i43 = add i64 %.07071, 40
  %50 = add i64 %.0.i43, %49
  %51 = tail call i32 @PQgetisnull(ptr noundef %0, i32 noundef %1, i32 noundef %.072) #6
  %.not = icmp eq i32 %51, 0
  br i1 %.not, label %52, label %97

52:                                               ; preds = %46
  %53 = tail call ptr @PQgetvalue(ptr noundef %0, i32 noundef %1, i32 noundef %.072) #6
  %54 = tail call ptr @PGTYPESnumeric_from_asc(ptr noundef %53, ptr noundef null) #6
  %.not26 = icmp eq ptr %54, null
  br i1 %.not26, label %97, label %55

55:                                               ; preds = %52
  %56 = getelementptr inbounds nuw i8, ptr %54, i64 24
  %57 = load ptr, ptr %56, align 8
  %.not27 = icmp eq ptr %57, null
  br i1 %.not27, label %72, label %58

58:                                               ; preds = %55
  %59 = getelementptr inbounds nuw i8, ptr %54, i64 32
  %60 = load ptr, ptr %59, align 8
  %61 = ptrtoint ptr %60 to i64
  %62 = ptrtoint ptr %57 to i64
  %63 = sub i64 %61, %62
  %64 = load i32, ptr %54, align 8
  %65 = trunc i64 %63 to i32
  %66 = add i32 %64, %65
  %67 = srem i64 %50, 4
  %.not.i44 = icmp eq i64 %67, 0
  %68 = sub nsw i64 4, %67
  %69 = select i1 %.not.i44, i64 0, i64 %68
  %.0.i45 = add i64 %69, %50
  %70 = sext i32 %66 to i64
  %71 = add i64 %.0.i45, %70
  br label %72

72:                                               ; preds = %58, %55
  %.1 = phi i64 [ %50, %55 ], [ %71, %58 ]
  tail call void @PGTYPESnumeric_free(ptr noundef nonnull %54) #6
  br label %97

73:                                               ; preds = %.lr.ph
  %74 = srem i64 %.07071, 8
  %.not.i46 = icmp eq i64 %74, 0
  %75 = sub nsw i64 8, %74
  %76 = select i1 %.not.i46, i64 0, i64 %75
  %.0.i47 = add i64 %.07071, 8
  %77 = add i64 %.0.i47, %76
  br label %97

78:                                               ; preds = %.lr.ph
  %79 = srem i64 %.07071, 8
  %.not.i48 = icmp eq i64 %79, 0
  %80 = sub nsw i64 8, %79
  %81 = select i1 %.not.i48, i64 0, i64 %80
  %.0.i49 = add i64 %.07071, 8
  %82 = add i64 %.0.i49, %81
  br label %97

83:                                               ; preds = %.lr.ph
  %84 = srem i64 %.07071, 8
  %.not.i50 = icmp eq i64 %84, 0
  %85 = sub nsw i64 8, %84
  %86 = select i1 %.not.i50, i64 0, i64 %85
  %.0.i51 = add i64 %.07071, 16
  %87 = add i64 %.0.i51, %86
  br label %97

88:                                               ; preds = %.lr.ph
  %89 = tail call ptr @PQgetvalue(ptr noundef %0, i32 noundef %1, i32 noundef %.072) #6
  %90 = tail call i64 @strlen(ptr noundef nonnull dereferenceable(1) %89) #7
  %91 = srem i64 %.07071, 4
  %.not.i52 = icmp eq i64 %91, 0
  %92 = sub nsw i64 4, %91
  %93 = select i1 %.not.i52, i64 0, i64 %92
  %.0.i53 = add i64 %93, %.07071
  %94 = shl i64 %90, 32
  %sext = add i64 %94, 4294967296
  %95 = ashr exact i64 %sext, 32
  %96 = add i64 %.0.i53, %95
  br label %97

97:                                               ; preds = %72, %52, %46, %88, %83, %78, %73, %41, %36, %31, %29, %24, %19, %14, %9
  %.069 = phi i64 [ %96, %88 ], [ %87, %83 ], [ %82, %78 ], [ %77, %73 ], [ %50, %52 ], [ %.1, %72 ], [ %50, %46 ], [ %45, %41 ], [ %40, %36 ], [ %35, %31 ], [ %30, %29 ], [ %28, %24 ], [ %23, %19 ], [ %18, %14 ], [ %13, %9 ]
  %98 = add nuw nsw i32 %.072, 1
  %exitcond.not = icmp eq i32 %98, %5
  br i1 %exitcond.not, label %._crit_edge, label %.lr.ph, !llvm.loop !9

._crit_edge:                                      ; preds = %97, %4
  %.070.lcssa = phi i64 [ %3, %4 ], [ %.069, %97 ]
  ret i64 %.070.lcssa
}